target datalayout = "e-m:e-p270:32:32-p271:32:32-p272:64:64-i64:64-i128:128-f80:128-n8:16:32:64-S128"
target triple = "x86_64-pc-linux-gnu"

%struct.mbedtls_ssl_context = type { ptr, i32, i32, i32, i32, i32, ptr, ptr, ptr, ptr, ptr, ptr, ptr, ptr, ptr, ptr, ptr, ptr, ptr, ptr, ptr, ptr, ptr, ptr, ptr, ptr, ptr, ptr, ptr, ptr, ptr, ptr, ptr, i32, i64, i64, i16, i64, i64, i64, i64, i32, i32, i8, i8, i32, i8, ptr, ptr, ptr, ptr, ptr, ptr, ptr, i32, i64, i64, [8 x i8], i16, ptr, ptr, ptr, i64, i32, i64, [12 x i8], [12 x i8], [32 x i8], i8, i8, ptr, ptr, %union.mbedtls_ssl_user_data_t }
%union.mbedtls_ssl_user_data_t = type { i64 }
%struct.mbedtls_mpi = type { ptr, i16, i16 }
%struct.mbedtls_ssl_handshake_params = type { i8, i8, i8, i8, i8, i32, i8, i8, i8, i8, ptr, ptr, ptr, ptr, ptr, i8, i8, i8, i8, i16, i16, [20 x i16], ptr, ptr, %struct.mbedtls_dhm_context, %struct.mbedtls_ecdh_context, i16, i64, i32, i8, [1024 x i8], i64, ptr, ptr, i64, i16, ptr, ptr, ptr, ptr, %struct.anon, ptr, i16, i8, i32, i32, i32, ptr, ptr, ptr, i32, ptr, [8 x i8], i8, [32 x i8], i8, i16, %struct.mbedtls_md_context_t, %struct.mbedtls_md_context_t, i16, i8, %union.anon.1, [64 x i8], [1076 x i8], i64, i32, i32, i8, ptr, ptr, %union.anon.4, %struct.mbedtls_ssl_tls13_handshake_secrets, ptr, i64, ptr }
%struct.mbedtls_dhm_context = type { %struct.mbedtls_mpi, %struct.mbedtls_mpi, %struct.mbedtls_mpi, %struct.mbedtls_mpi, %struct.mbedtls_mpi, %struct.mbedtls_mpi, %struct.mbedtls_mpi, %struct.mbedtls_mpi, %struct.mbedtls_mpi, %struct.mbedtls_mpi }
%struct.mbedtls_ecdh_context = type { i8, i32, i32, %union.anon }
%union.anon = type { %struct.mbedtls_ecdh_context_mbed }
%struct.mbedtls_ecdh_context_mbed = type { %struct.mbedtls_ecp_group, %struct.mbedtls_mpi, %struct.mbedtls_ecp_point, %struct.mbedtls_ecp_point, %struct.mbedtls_mpi }
%struct.mbedtls_ecp_group = type { i32, %struct.mbedtls_mpi, %struct.mbedtls_mpi, %struct.mbedtls_mpi, %struct.mbedtls_ecp_point, %struct.mbedtls_mpi, i64, i64, i32, ptr, ptr, ptr, ptr, ptr, i64 }
%struct.mbedtls_ecp_point = type { %struct.mbedtls_mpi, %struct.mbedtls_mpi, %struct.mbedtls_mpi }
%struct.anon = type { i64, i8, [4 x %struct.mbedtls_ssl_hs_buffer], %struct.anon.0 }
%struct.mbedtls_ssl_hs_buffer = type { i8, ptr, i64 }
%struct.anon.0 = type { ptr, i64, i32 }
%struct.mbedtls_md_context_t = type { ptr, ptr, ptr }
%union.anon.1 = type { %struct.anon.2 }
%struct.anon.2 = type { i8, [64 x i8], i64 }
%union.anon.4 = type { [64 x i8] }
%struct.mbedtls_ssl_tls13_handshake_secrets = type { [64 x i8], [64 x i8] }

@.str = private unnamed_addr constant [130 x i8] c"generated/home/dtcxzyw/WorkSpace/Projects/compilers/llvm-opt-benchmark/bench/lief/bench_build/mbed_src/library/ssl_tls13_client.c\00", align 1
@.str.34 = private unnamed_addr constant [25 x i8] c"missing input data in %s\00", align 1
@.str.80 = private unnamed_addr constant [12 x i8] c"( ignored )\00", align 1
@.str.108 = private unnamed_addr constant [40 x i8] c"ssl_tls13_parse_new_session_ticket_exts\00", align 1

; Function Attrs: alwaysinline nounwind uwtable
define internal zeroext i16 @mbedtls_get_unaligned_uint16(ptr noundef %0) #4 {
  %2 = alloca ptr, align 8
  %3 = alloca i16, align 2
  store ptr %0, ptr %2, align 8, !tbaa !46
  call void @llvm.lifetime.start.p0(i64 2, ptr %3) #10
  %4 = load ptr, ptr %2, align 8, !tbaa !46
  call void @llvm.memcpy.p0.p0.i64(ptr align 2 %3, ptr align 1 %4, i64 2, i1 false)
  %5 = load i16, ptr %3, align 2, !tbaa !47
  call void @llvm.lifetime.end.p0(i64 2, ptr %3) #10
  ret i16 %5
}

; Function Attrs: inlinehint nounwind uwtable
define internal i32 @mbedtls_ssl_chk_buf_ptr(ptr noundef %0, ptr noundef %1, i64 noundef %2) #3 {
  %4 = alloca ptr, align 8
  %5 = alloca ptr, align 8
  %6 = alloca i64, align 8
  store ptr %0, ptr %4, align 8, !tbaa !8
  store ptr %1, ptr %5, align 8, !tbaa !8
  store i64 %2, ptr %6, align 8, !tbaa !14
  %7 = load ptr, ptr %4, align 8, !tbaa !8
  %8 = load ptr, ptr %5, align 8, !tbaa !8
  %9 = icmp ugt ptr %7, %8
  br i1 %9, label %18, label %10

10:                                               ; preds = %3
  %11 = load i64, ptr %6, align 8, !tbaa !14
  %12 = load ptr, ptr %5, align 8, !tbaa !8
  %13 = load ptr, ptr %4, align 8, !tbaa !8
  %14 = ptrtoint ptr %12 to i64
  %15 = ptrtoint ptr %13 to i64
  %16 = sub i64 %14, %15
  %17 = icmp ugt i64 %11, %16
  br label %18

18:                                               ; preds = %10, %3
  %19 = phi i1 [ true, %3 ], [ %17, %10 ]
  %20 = zext i1 %19 to i32
  ret i32 %20
}

; Function Attrs: nounwind uwtable
define internal i32 @ssl_tls13_parse_new_session_ticket_exts(ptr noundef %0, ptr noundef %1, ptr noundef %2) #0 {
  %4 = alloca i32, align 4
  %5 = alloca ptr, align 8
  %6 = alloca ptr, align 8
  %7 = alloca ptr, align 8
  %8 = alloca ptr, align 8
  %9 = alloca ptr, align 8
  %10 = alloca i32, align 4
  %11 = alloca i64, align 8
  %12 = alloca i32, align 4
  %13 = alloca i32, align 4
  store ptr %0, ptr %5, align 8, !tbaa !3
  store ptr %1, ptr %6, align 8, !tbaa !8
  store ptr %2, ptr %7, align 8, !tbaa !8
  call void @llvm.lifetime.start.p0(i64 8, ptr %8) #10
  %14 = load ptr, ptr %5, align 8, !tbaa !3
  %15 = getelementptr inbounds nuw %struct.mbedtls_ssl_context, ptr %14, i32 0, i32 16
  %16 = load ptr, ptr %15, align 8, !tbaa !52
  store ptr %16, ptr %8, align 8, !tbaa !65
  call void @llvm.lifetime.start.p0(i64 8, ptr %9) #10
  %17 = load ptr, ptr %6, align 8, !tbaa !8
  store ptr %17, ptr %9, align 8, !tbaa !8
  %18 = load ptr, ptr %8, align 8, !tbaa !65
  %19 = getelementptr inbounds nuw %struct.mbedtls_ssl_handshake_params, ptr %18, i32 0, i32 66
  store i32 0, ptr %19, align 4, !tbaa !92
  br label %20

20:                                               ; preds = %79, %3
  %21 = load ptr, ptr %9, align 8, !tbaa !8
  %22 = load ptr, ptr %7, align 8, !tbaa !8
  %23 = icmp ult ptr %21, %22
  br i1 %23, label %24, label %80

24:                                               ; preds = %20
  call void @llvm.lifetime.start.p0(i64 4, ptr %10) #10
  call void @llvm.lifetime.start.p0(i64 8, ptr %11) #10
  call void @llvm.lifetime.start.p0(i64 4, ptr %12) #10
  br label %25

25:                                               ; preds = %24
  %26 = load ptr, ptr %9, align 8, !tbaa !8
  %27 = load ptr, ptr %7, align 8, !tbaa !8
  %28 = call i32 @mbedtls_ssl_chk_buf_ptr(ptr noundef %26, ptr noundef %27, i64 noundef 4)
  %29 = icmp ne i32 %28, 0
  br i1 %29, label %30, label %33

30:                                               ; preds = %25
  %31 = load ptr, ptr %5, align 8, !tbaa !3
  call void (ptr, i32, ptr, i32, ptr, ...) @mbedtls_debug_print_msg(ptr noundef %31, i32 noundef 1, ptr noundef @.str, i32 noundef 2782, ptr noundef @.str.34, ptr noundef @.str.108)
  %32 = load ptr, ptr %5, align 8, !tbaa !3
  call void @mbedtls_ssl_pend_fatal_alert(ptr noundef %32, i8 noundef zeroext 50, i32 noundef -29440)
  store i32 -29440, ptr %4, align 4
  store i32 1, ptr %13, align 4
  br label %77

33:                                               ; preds = %25
  br label %34

34:                                               ; preds = %33
  br label %35

35:                                               ; preds = %34
  %36 = load ptr, ptr %9, align 8, !tbaa !8
  %37 = getelementptr inbounds i8, ptr %36, i64 0
  %38 = call zeroext i16 @mbedtls_get_unaligned_uint16(ptr noundef %37)
  %39 = call i16 @llvm.bswap.i16(i16 %38)
  %40 = zext i16 %39 to i32
  store i32 %40, ptr %10, align 4, !tbaa !12
  %41 = load ptr, ptr %9, align 8, !tbaa !8
  %42 = getelementptr inbounds i8, ptr %41, i64 2
  %43 = call zeroext i16 @mbedtls_get_unaligned_uint16(ptr noundef %42)
  %44 = call i16 @llvm.bswap.i16(i16 %43)
  %45 = zext i16 %44 to i32
  %46 = sext i32 %45 to i64
  store i64 %46, ptr %11, align 8, !tbaa !14
  %47 = load ptr, ptr %9, align 8, !tbaa !8
  %48 = getelementptr inbounds i8, ptr %47, i64 4
  store ptr %48, ptr %9, align 8, !tbaa !8
  br label %49

49:                                               ; preds = %35
  %50 = load ptr, ptr %9, align 8, !tbaa !8
  %51 = load ptr, ptr %7, align 8, !tbaa !8
  %52 = load i64, ptr %11, align 8, !tbaa !14
  %53 = call i32 @mbedtls_ssl_chk_buf_ptr(ptr noundef %50, ptr noundef %51, i64 noundef %52)
  %54 = icmp ne i32 %53, 0
  br i1 %54, label %55, label %58

55:                                               ; preds = %49
  %56 = load ptr, ptr %5, align 8, !tbaa !3
  call void (ptr, i32, ptr, i32, ptr, ...) @mbedtls_debug_print_msg(ptr noundef %56, i32 noundef 1, ptr noundef @.str, i32 noundef 2787, ptr noundef @.str.34, ptr noundef @.str.108)
  %57 = load ptr, ptr %5, align 8, !tbaa !3
  call void @mbedtls_ssl_pend_fatal_alert(ptr noundef %57, i8 noundef zeroext 50, i32 noundef -29440)
  store i32 -29440, ptr %4, align 4
  store i32 1, ptr %13, align 4
  br label %77

58:                                               ; preds = %49
  br label %59

59:                                               ; preds = %58
  br label %60

60:                                               ; preds = %59
  %61 = load ptr, ptr %5, align 8, !tbaa !3
  %62 = load i32, ptr %10, align 4, !tbaa !12
  %63 = call i32 @mbedtls_ssl_tls13_check_received_extension(ptr noundef %61, i32 noundef 4, i32 noundef %62, i32 noundef 260063233)
  store i32 %63, ptr %12, align 4, !tbaa !12
  %64 = load i32, ptr %12, align 4, !tbaa !12
  %65 = icmp ne i32 %64, 0
  br i1 %65, label %66, label %68

66:                                               ; preds = %60
  %67 = load i32, ptr %12, align 4, !tbaa !12
  store i32 %67, ptr %4, align 4
  store i32 1, ptr %13, align 4
  br label %77

68:                                               ; preds = %60
  %69 = load i32, ptr %10, align 4, !tbaa !12
  switch i32 %69, label %70 [
  ]

70:                                               ; preds = %68
  %71 = load ptr, ptr %5, align 8, !tbaa !3
  %72 = load i32, ptr %10, align 4, !tbaa !12
  call void @mbedtls_ssl_print_extension(ptr noundef %71, i32 noundef 3, ptr noundef @.str, i32 noundef 2812, i32 noundef 4, i32 noundef %72, ptr noundef @.str.80, ptr noundef null)
  br label %73

73:                                               ; preds = %70
  %74 = load i64, ptr %11, align 8, !tbaa !14
  %75 = load ptr, ptr %9, align 8, !tbaa !8
  %76 = getelementptr inbounds nuw i8, ptr %75, i64 %74
  store ptr %76, ptr %9, align 8, !tbaa !8
  store i32 0, ptr %13, align 4
  br label %77

77:                                               ; preds = %73, %66, %55, %30
  call void @llvm.lifetime.end.p0(i64 4, ptr %12) #10
  call void @llvm.lifetime.end.p0(i64 8, ptr %11) #10
  call void @llvm.lifetime.end.p0(i64 4, ptr %10) #10
  %78 = load i32, ptr %13, align 4
  switch i32 %78, label %85 [
    i32 0, label %79
  ]

79:                                               ; preds = %77
  br label %20, !llvm.loop !121

80:                                               ; preds = %20
  %81 = load ptr, ptr %5, align 8, !tbaa !3
  %82 = load ptr, ptr %8, align 8, !tbaa !65
  %83 = getelementptr inbounds nuw %struct.mbedtls_ssl_handshake_params, ptr %82, i32 0, i32 66
  %84 = load i32, ptr %83, align 4, !tbaa !92
  call void @mbedtls_ssl_print_extensions(ptr noundef %81, i32 noundef 3, ptr noundef @.str, i32 noundef 2820, i32 noundef 4, i32 noundef %84, ptr noundef null)
  store i32 0, ptr %4, align 4
  store i32 1, ptr %13, align 4
  br label %85

85:                                               ; preds = %80, %77
  call void @llvm.lifetime.end.p0(i64 8, ptr %9) #10
  call void @llvm.lifetime.end.p0(i64 8, ptr %8) #10
  %86 = load i32, ptr %4, align 4
  ret i32 %86
}