; Function Attrs: nounwind uwtable
define internal fastcc i32 @ssl_tls13_parse_new_session_ticket_exts(ptr noundef %0, ptr noundef %1, ptr noundef %2) unnamed_addr #0 {
  %4 = getelementptr inbounds nuw i8, ptr %0, i64 112
  %5 = load ptr, ptr %4, align 8, !tbaa !17
  %6 = getelementptr inbounds nuw i8, ptr %5, i64 3276
  store i32 0, ptr %6, align 4, !tbaa !75
  %7 = icmp ult ptr %1, %2
  br i1 %7, label %.lr.ph, label %._crit_edge

.lr.ph:                                           ; preds = %3
  %8 = ptrtoint ptr %2 to i64
  br label %9

9:                                                ; preds = %.lr.ph, %28
  %.02941 = phi ptr [ %1, %.lr.ph ], [ %29, %28 ]
  %10 = ptrtoint ptr %.02941 to i64
  %11 = sub i64 %8, %10
  %12 = icmp ugt i64 %11, 3
  br i1 %12, label %14, label %13

13:                                               ; preds = %9
  tail call void (ptr, i32, ptr, i32, ptr, ...) @mbedtls_debug_print_msg(ptr noundef %0, i32 noundef 1, ptr noundef nonnull @.str, i32 noundef 2782, ptr noundef nonnull @.str.34, ptr noundef nonnull @.str.108) #12
  tail call void @mbedtls_ssl_pend_fatal_alert(ptr noundef %0, i8 noundef zeroext 50, i32 noundef -29440) #12
  br label %.thread

14:                                               ; preds = %9
  %.0.copyload.i35 = load i16, ptr %.02941, align 1
  %15 = tail call i16 @llvm.bswap.i16(i16 %.0.copyload.i35)
  %16 = zext i16 %15 to i32
  %17 = getelementptr inbounds nuw i8, ptr %.02941, i64 2
  %.0.copyload.i = load i16, ptr %17, align 1
  %18 = tail call i16 @llvm.bswap.i16(i16 %.0.copyload.i)
  %19 = zext i16 %18 to i64
  %20 = getelementptr inbounds nuw i8, ptr %.02941, i64 4
  %21 = icmp ule ptr %20, %2
  %22 = ptrtoint ptr %20 to i64
  %23 = sub i64 %8, %22
  %24 = icmp uge i64 %23, %19
  %narrow.i36.not = and i1 %21, %24
  br i1 %narrow.i36.not, label %26, label %25

25:                                               ; preds = %14
  tail call void (ptr, i32, ptr, i32, ptr, ...) @mbedtls_debug_print_msg(ptr noundef %0, i32 noundef 1, ptr noundef nonnull @.str, i32 noundef 2787, ptr noundef nonnull @.str.34, ptr noundef nonnull @.str.108) #12
  tail call void @mbedtls_ssl_pend_fatal_alert(ptr noundef %0, i8 noundef zeroext 50, i32 noundef -29440) #12
  br label %.thread

26:                                               ; preds = %14
  %27 = tail call i32 @mbedtls_ssl_tls13_check_received_extension(ptr noundef %0, i32 noundef 4, i32 noundef %16, i32 noundef 260063233) #12
  %.not34 = icmp eq i32 %27, 0
  br i1 %.not34, label %28, label %.thread

28:                                               ; preds = %26
  tail call void @mbedtls_ssl_print_extension(ptr noundef %0, i32 noundef 3, ptr noundef nonnull @.str, i32 noundef 2812, i32 noundef 4, i32 noundef %16, ptr noundef nonnull @.str.80, ptr noundef null) #12
  %29 = getelementptr inbounds nuw i8, ptr %20, i64 %19
  %30 = icmp ult ptr %29, %2
  br i1 %30, label %9, label %._crit_edge.loopexit, !llvm.loop !109

._crit_edge.loopexit:                             ; preds = %28
  %.pre = load i32, ptr %6, align 4, !tbaa !75
  br label %._crit_edge

._crit_edge:                                      ; preds = %._crit_edge.loopexit, %3
  %31 = phi i32 [ %.pre, %._crit_edge.loopexit ], [ 0, %3 ]
  tail call void @mbedtls_ssl_print_extensions(ptr noundef %0, i32 noundef 3, ptr noundef nonnull @.str, i32 noundef 2820, i32 noundef 4, i32 noundef %31, ptr noundef null) #12
  br label %.thread

.thread:                                          ; preds = %26, %25, %13, %._crit_edge
  %.2 = phi i32 [ 0, %._crit_edge ], [ -29440, %25 ], [ -29440, %13 ], [ %27, %26 ]
  ret i32 %.2
}